target datalayout = "e-m:e-p270:32:32-p271:32:32-p272:64:64-i64:64-i128:128-f80:128-n8:16:32:64-S128"
target triple = "x86_64-pc-linux-gnu"

%struct.stbte__colorrect = type { i32, i32, i32, i32, i32 }
%struct.stbte__panel = type { i32, i32, i32, i32, i32, i32, i32, i32 }
%struct.stbte__ui_t = type { i32, i32, i32, i32, i32, i32, i32, i32, i32, i32, i32, i32, i32, i32, [2 x i32], [256 x %struct.stbte__colorrect], i32, i32, i32, i32, i32, i32, i32, i32, i32, i32, i32, i32, i32, i32, i32, i32, i32, i32, i32, i32, i32, i32, i32, i32, i32, i32, i32, i32, i32, i32, i32, i32, i32, i32, i32, i32, i32, i32, i32, i32, i32, float, ptr, float, [7 x %struct.stbte__panel], [65536 x [8 x i16]], [65536 x [1 x float]], i32, i32, ptr, i32, i32, i32, i32 }

@stbte__font_offset = global [111 x i16] zeroinitializer, align 16

; Function Attrs: nounwind uwtable
define void @stbte__init_gui() #0 {
  %1 = alloca i32, align 4
  %2 = alloca i32, align 4
  call void @llvm.lifetime.start.p0(i64 4, ptr %1) #8
  call void @llvm.lifetime.start.p0(i64 4, ptr %2) #8
  store i32 1, ptr getelementptr inbounds nuw (%struct.stbte__ui_t, ptr @stbte__ui, i32 0, i32 13), align 4, !tbaa !3
  store i32 1, ptr getelementptr inbounds nuw (%struct.stbte__ui_t, ptr @stbte__ui, i32 0, i32 18), align 8, !tbaa !12
  store i32 0, ptr %1, align 4, !tbaa !13
  br label %3

3:                                                ; preds = %19, %0
  %4 = load i32, ptr %1, align 4, !tbaa !13
  %5 = icmp slt i32 %4, 7
  br i1 %5, label %6, label %22

6:                                                ; preds = %3
  %7 = load i32, ptr %1, align 4, !tbaa !13
  %8 = sext i32 %7 to i64
  %9 = getelementptr inbounds [7 x %struct.stbte__panel], ptr getelementptr inbounds nuw (%struct.stbte__ui_t, ptr @stbte__ui, i32 0, i32 60), i64 0, i64 %8
  %10 = getelementptr inbounds nuw %struct.stbte__panel, ptr %9, i32 0, i32 0
  store i32 1, ptr %10, align 4, !tbaa !14
  %11 = load i32, ptr %1, align 4, !tbaa !13
  %12 = sext i32 %11 to i64
  %13 = getelementptr inbounds [7 x %struct.stbte__panel], ptr getelementptr inbounds nuw (%struct.stbte__ui_t, ptr @stbte__ui, i32 0, i32 60), i64 0, i64 %12
  %14 = getelementptr inbounds nuw %struct.stbte__panel, ptr %13, i32 0, i32 2
  store i32 0, ptr %14, align 4, !tbaa !16
  %15 = load i32, ptr %1, align 4, !tbaa !13
  %16 = sext i32 %15 to i64
  %17 = getelementptr inbounds [7 x %struct.stbte__panel], ptr getelementptr inbounds nuw (%struct.stbte__ui_t, ptr @stbte__ui, i32 0, i32 60), i64 0, i64 %16
  %18 = getelementptr inbounds nuw %struct.stbte__panel, ptr %17, i32 0, i32 3
  store i32 0, ptr %18, align 4, !tbaa !17
  br label %19

19:                                               ; preds = %6
  %20 = load i32, ptr %1, align 4, !tbaa !13
  %21 = add nsw i32 %20, 1
  store i32 %21, ptr %1, align 4, !tbaa !13
  br label %3, !llvm.loop !18

22:                                               ; preds = %3
  store i32 2, ptr getelementptr inbounds nuw (%struct.stbte__panel, ptr getelementptr inbounds nuw (%struct.stbte__ui_t, ptr @stbte__ui, i32 0, i32 60), i32 0, i32 3), align 4, !tbaa !17
  store i32 1, ptr getelementptr inbounds nuw (%struct.stbte__panel, ptr getelementptr inbounds ([7 x %struct.stbte__panel], ptr getelementptr inbounds nuw (%struct.stbte__ui_t, ptr @stbte__ui, i32 0, i32 60), i64 0, i64 1), i32 0, i32 3), align 4, !tbaa !17
  %23 = load i32, ptr getelementptr inbounds nuw (%struct.stbte__ui_t, ptr @stbte__ui, i32 0, i32 55), align 4, !tbaa !20
  %24 = icmp eq i32 %23, 0
  br i1 %24, label %25, label %26

25:                                               ; preds = %22
  store i32 80, ptr getelementptr inbounds nuw (%struct.stbte__ui_t, ptr @stbte__ui, i32 0, i32 55), align 4, !tbaa !20
  br label %26

26:                                               ; preds = %25, %22
  %27 = load i32, ptr getelementptr inbounds nuw (%struct.stbte__ui_t, ptr @stbte__ui, i32 0, i32 56), align 8, !tbaa !21
  %28 = icmp eq i32 %27, 0
  br i1 %28, label %29, label %30

29:                                               ; preds = %26
  store i32 80, ptr getelementptr inbounds nuw (%struct.stbte__ui_t, ptr @stbte__ui, i32 0, i32 56), align 8, !tbaa !21
  br label %30

30:                                               ; preds = %29, %26
  store i32 111, ptr %2, align 4, !tbaa !13
  store i32 0, ptr %1, align 4, !tbaa !13
  br label %31

31:                                               ; preds = %47, %30
  %32 = load i32, ptr %1, align 4, !tbaa !13
  %33 = icmp slt i32 %32, 111
  br i1 %33, label %34, label %50

34:                                               ; preds = %31
  %35 = load i32, ptr %2, align 4, !tbaa !13
  %36 = trunc i32 %35 to i16
  %37 = load i32, ptr %1, align 4, !tbaa !13
  %38 = sext i32 %37 to i64
  %39 = getelementptr inbounds [111 x i16], ptr @stbte__font_offset, i64 0, i64 %38
  store i16 %36, ptr %39, align 2, !tbaa !22
  %40 = load i32, ptr %1, align 4, !tbaa !13
  %41 = sext i32 %40 to i64
  %42 = getelementptr inbounds [769 x i16], ptr @stbte__fontdata, i64 0, i64 %41
  %43 = load i16, ptr %42, align 2, !tbaa !22
  %44 = sext i16 %43 to i32
  %45 = load i32, ptr %2, align 4, !tbaa !13
  %46 = add nsw i32 %45, %44
  store i32 %46, ptr %2, align 4, !tbaa !13
  br label %47

47:                                               ; preds = %34
  %48 = load i32, ptr %1, align 4, !tbaa !13
  %49 = add nsw i32 %48, 1
  store i32 %49, ptr %1, align 4, !tbaa !13
  br label %31, !llvm.loop !24

50:                                               ; preds = %31
  call void @llvm.lifetime.end.p0(i64 4, ptr %2) #8
  call void @llvm.lifetime.end.p0(i64 4, ptr %1) #8
  ret void
}