; Function Attrs: nofree norecurse nosync nounwind memory(readwrite, argmem: none, inaccessiblemem: none) uwtable
define void @stbte__init_gui() local_unnamed_addr #0 {
  store i32 1, ptr getelementptr inbounds nuw (i8, ptr @stbte__ui, i64 52), align 4, !tbaa !3
  store i32 1, ptr getelementptr inbounds nuw (i8, ptr @stbte__ui, i64 5192), align 8, !tbaa !12
  br label %1

1:                                                ; preds = %0, %1
  %indvars.iv = phi i64 [ 0, %0 ], [ %indvars.iv.next, %1 ]
  %2 = getelementptr inbounds nuw [7 x %struct.stbte__panel], ptr getelementptr inbounds nuw (i8, ptr @stbte__ui, i64 5364), i64 0, i64 %indvars.iv
  store i32 1, ptr %2, align 4, !tbaa !13
  %3 = getelementptr inbounds nuw i8, ptr %2, i64 8
  store i32 0, ptr %3, align 4, !tbaa !15
  %4 = getelementptr inbounds nuw i8, ptr %2, i64 12
  store i32 0, ptr %4, align 8, !tbaa !16
  %indvars.iv.next = add nuw nsw i64 %indvars.iv, 1
  %exitcond.not = icmp eq i64 %indvars.iv.next, 7
  br i1 %exitcond.not, label %5, label %1, !llvm.loop !17

5:                                                ; preds = %1
  store i32 2, ptr getelementptr inbounds nuw (i8, ptr @stbte__ui, i64 5376), align 8, !tbaa !16
  store i32 1, ptr getelementptr inbounds nuw (i8, ptr @stbte__ui, i64 5408), align 8, !tbaa !16
  %6 = load i32, ptr getelementptr inbounds nuw (i8, ptr @stbte__ui, i64 5340), align 4, !tbaa !19
  %7 = icmp eq i32 %6, 0
  br i1 %7, label %8, label %9

8:                                                ; preds = %5
  store i32 80, ptr getelementptr inbounds nuw (i8, ptr @stbte__ui, i64 5340), align 4, !tbaa !19
  br label %9

9:                                                ; preds = %8, %5
  %10 = load i32, ptr getelementptr inbounds nuw (i8, ptr @stbte__ui, i64 5344), align 8, !tbaa !20
  %11 = icmp eq i32 %10, 0
  br i1 %11, label %12, label %.preheader

12:                                               ; preds = %9
  store i32 80, ptr getelementptr inbounds nuw (i8, ptr @stbte__ui, i64 5344), align 8, !tbaa !20
  br label %.preheader

.preheader:                                       ; preds = %12, %9
  br label %13

13:                                               ; preds = %.preheader, %13
  %indvars.iv16 = phi i64 [ %indvars.iv.next17, %13 ], [ 0, %.preheader ]
  %.014 = phi i16 [ %17, %13 ], [ 111, %.preheader ]
  %14 = getelementptr inbounds nuw [111 x i16], ptr @stbte__font_offset, i64 0, i64 %indvars.iv16
  store i16 %.014, ptr %14, align 2, !tbaa !21
  %15 = getelementptr inbounds nuw [769 x i16], ptr @stbte__fontdata, i64 0, i64 %indvars.iv16
  %16 = load i16, ptr %15, align 2, !tbaa !21
  %17 = add i16 %16, %.014
  %indvars.iv.next17 = add nuw nsw i64 %indvars.iv16, 1
  %exitcond18.not = icmp eq i64 %indvars.iv.next17, 111
  br i1 %exitcond18.not, label %18, label %13, !llvm.loop !23

18:                                               ; preds = %13
  ret void
}